target datalayout = "e-m:e-p270:32:32-p271:32:32-p272:64:64-i64:64-i128:128-f80:128-n8:16:32:64-S128"
target triple = "x86_64-pc-linux-gnu"

%class.XMark = type <{ ptr, ptr, [48 x i8], %class.XMarkStackAllocator, %class.XMarkStripeSet, %class.XMarkTerminate, i8, [7 x i8], i64, i64, i64, i64, i64, i64, i32, [4 x i8] }>
%class.XMarkStackAllocator = type { %class.XStackList, [56 x i8], %class.XMarkStackSpace }
%class.XStackList = type { ptr }
%class.XMarkStackSpace = type { %class.XLock, i64, i64, i64 }
%class.XLock = type { %class.PlatformMutex }
%class.PlatformMutex = type { %union.pthread_mutex_t }
%union.pthread_mutex_t = type { %struct.__pthread_mutex_s }
%struct.__pthread_mutex_s = type { i32, i32, i32, i32, i32, i16, i16, %struct.__pthread_internal_list }
%struct.__pthread_internal_list = type { ptr, ptr }
%class.XMarkStripeSet = type { i64, i64, [48 x i8], [16 x %class.XMarkStripe] }
%class.XMarkStripe = type { %class.XStackList.0, [56 x i8], %class.XStackList.0, [56 x i8] }
%class.XStackList.0 = type { ptr }
%class.XMarkTerminate = type { i32, [60 x i8], i32, i32, [56 x i8] }
%"struct.Atomic::LoadImpl.33" = type { i8 }
%"struct.Atomic::PlatformLoad" = type { i8 }

@_ZN7XThread10_worker_idE = external thread_local global i32, align 4

; Function Attrs: mustprogress nounwind uwtable
define linkonce_odr hidden noundef i64 @_ZNK6Atomic12PlatformLoadILm8EEclImEET_PVKS3_(ptr noundef nonnull align 1 dereferenceable(1) %0, ptr noundef %1) #1 comdat align 2 {
  %3 = alloca ptr, align 8
  %4 = alloca ptr, align 8
  store ptr %0, ptr %3, align 8
  store ptr %1, ptr %4, align 8
  %5 = load ptr, ptr %4, align 8
  %6 = load volatile i64, ptr %5, align 8
  ret i64 %6
}

; Function Attrs: mustprogress nounwind uwtable
define linkonce_odr hidden noundef i64 @_ZNK6Atomic8LoadImplImNS_12PlatformLoadILm8EEEvEclEPVKm(ptr noundef nonnull align 1 dereferenceable(1) %0, ptr noundef %1) #1 comdat align 2 {
  %3 = alloca ptr, align 8
  %4 = alloca ptr, align 8
  %5 = alloca %"struct.Atomic::PlatformLoad", align 1
  store ptr %0, ptr %3, align 8
  store ptr %1, ptr %4, align 8
  %6 = load ptr, ptr %4, align 8
  %7 = call noundef i64 @_ZNK6Atomic12PlatformLoadILm8EEclImEET_PVKS3_(ptr noundef nonnull align 1 dereferenceable(1) %5, ptr noundef %6)
  ret i64 %7
}

; Function Attrs: mustprogress nounwind uwtable
define linkonce_odr hidden noundef i64 @_ZN6Atomic4loadImEET_PVKS1_(ptr noundef %0) #1 comdat align 2 {
  %2 = alloca ptr, align 8
  %3 = alloca %"struct.Atomic::LoadImpl.33", align 1
  store ptr %0, ptr %2, align 8
  %4 = load ptr, ptr %2, align 8
  %5 = call noundef i64 @_ZNK6Atomic8LoadImplImNS_12PlatformLoadILm8EEEvEclEPVKm(ptr noundef nonnull align 1 dereferenceable(1) %3, ptr noundef %4)
  ret i64 %5
}

; Function Attrs: mustprogress nounwind uwtable
define linkonce_odr hidden noundef i32 @_ZN7XThread9worker_idEv() #1 comdat align 2 {
  %1 = call align 4 ptr @llvm.threadlocal.address.p0(ptr align 4 @_ZN7XThread10_worker_idE)
  %2 = load i32, ptr %1, align 4
  ret i32 %2
}

; Function Attrs: mustprogress nounwind uwtable
define hidden noundef zeroext i1 @_ZN5XMark19try_proactive_flushEv(ptr noundef nonnull align 64 dereferenceable(2492) %0) #1 align 2 {
  %2 = alloca i1, align 1
  %3 = alloca ptr, align 8
  store ptr %0, ptr %3, align 8
  %4 = load ptr, ptr %3, align 8
  %5 = call noundef i32 @_ZN7XThread9worker_idEv()
  %6 = icmp ne i32 %5, 0
  br i1 %6, label %7, label %8

7:                                                ; preds = %1
  store i1 false, ptr %2, align 1
  br label %20

8:                                                ; preds = %1
  %9 = getelementptr inbounds %class.XMark, ptr %4, i32 0, i32 8
  %10 = call noundef i64 @_ZN6Atomic4loadImEET_PVKS1_(ptr noundef %9)
  %11 = icmp eq i64 %10, 10
  br i1 %11, label %16, label %12

12:                                               ; preds = %8
  %13 = getelementptr inbounds %class.XMark, ptr %4, i32 0, i32 9
  %14 = call noundef i64 @_ZN6Atomic4loadImEET_PVKS1_(ptr noundef %13)
  %15 = icmp ne i64 %14, 0
  br i1 %15, label %16, label %17

16:                                               ; preds = %12, %8
  store i1 false, ptr %2, align 1
  br label %20

17:                                               ; preds = %12
  %18 = getelementptr inbounds %class.XMark, ptr %4, i32 0, i32 8
  %19 = call noundef zeroext i1 @_ZN5XMark9try_flushEPVm(ptr noundef nonnull align 64 dereferenceable(2492) %4, ptr noundef %18)
  store i1 %19, ptr %2, align 1
  br label %20

20:                                               ; preds = %17, %16, %7
  %21 = load i1, ptr %2, align 1
  ret i1 %21
}