; Function Attrs: mustprogress nounwind uwtable
define hidden noundef zeroext i1 @_ZN5XMark19try_proactive_flushEv(ptr noundef nonnull align 64 dereferenceable(2492) %0) local_unnamed_addr #0 align 2 {
  %2 = tail call align 4 ptr @llvm.threadlocal.address.p0(ptr align 4 @_ZN7XThread10_worker_idE)
  %3 = load i32, ptr %2, align 4
  %.not = icmp eq i32 %3, 0
  br i1 %.not, label %4, label %13

4:                                                ; preds = %1
  %5 = getelementptr inbounds i8, ptr %0, i64 2440
  %6 = load volatile i64, ptr %5, align 8
  %7 = icmp eq i64 %6, 10
  br i1 %7, label %13, label %8

8:                                                ; preds = %4
  %9 = getelementptr inbounds i8, ptr %0, i64 2448
  %10 = load volatile i64, ptr %9, align 16
  %.not2 = icmp eq i64 %10, 0
  br i1 %.not2, label %11, label %13

11:                                               ; preds = %8
  %12 = tail call noundef zeroext i1 @_ZN5XMark9try_flushEPVm(ptr noundef nonnull align 64 dereferenceable(2492) %0, ptr noundef nonnull %5)
  br label %13

13:                                               ; preds = %4, %8, %1, %11
  %.0 = phi i1 [ %12, %11 ], [ false, %1 ], [ false, %8 ], [ false, %4 ]
  ret i1 %.0
}